(dp0
I9
S'Ortigalita_South'
p1
sI11
S'Monterey_Bay_Tularcitos'
p2
sI13
S'Mendocino'
p3
sI15
S'Table_Bluff'
p4
sI16
S'Little_Salmon'
p5
sI205
S'Richfield'
p6
sI19
S'Trinidad'
p7
sI20
S'Fickle_Hill'
p8
sI21
S'McKinleyville'
p9
sI22
S'Mad_River'
p10
sI541
S'Breckenridge'
p11
sI542
S'Kern_Canyon'
p12
sI31
S'San_Juan'
p13
sI688
S'Pittville'
p14
sI34
S'Cedar_Mtn_Mahogany_Mtn'
p15
sI547
S'Shoreline'
p16
sI37
S'Hat_Creek_McArthur_Mayfield'
p17
sI38
S'Robinson_Creek'
p18
sI42
S'Round_Valley'
p19
sI775
S'Santa_Cruz_Catalina_Ridge'
p20
sI174
S'Thirty_Mile_Bank'
p21
sI178
S'San_Clemente'
p22
sI47
S'Owl_Lake'
p23
sI561
S'Butano'
p24
sI50
S'Hunter_Mountain_Saline_Valley'
p25
sI51
S'Deep_Springs'
p26
sI58
S'Pleito'
p27
sI181
S'San_Pedro_Basin'
p28
sI64
S'Owens_Valley'
p29
sI65
S'Independence'
p30
sI581
S'Bennett_Valley'
p31
sI582
S'Collayami'
p32
sI74
S'Los_Osos'
p33
sI695
S'Swain_Ravine_Spenceville'
p34
sI78
S'Mission_Ridge_Arroyo_Parida_Santa_Ana'
p35
sI79
S'Santa_Ynez'
p36
sI80
S'San_Cayetano'
p37
sI81
S'Cleghorn'
p38
sI83
S'North_Frontal'
p39
sI84
S'Helendale_So_Lockhart'
p40
sI85
S'Lenwood_Lockhart_Old_Woman_Springs'
p41
sI86
S'Gravel_Hills_Harper_Lk'
p42
sI87
S'Blackwater'
p43
sI88
S'Calico_Hidalgo'
p44
sI89
S'Pisgah_Bullion_Mtn_Mesquite_Lk'
p45
sI90
S'Emerson_Copper_Mtn'
p46
sI91
S'Johnson_Valley_No'
p47
sI92
S'Kickapoo'
p48
sI605
S'Mission_connected'
p49
sI94
S'Burnt_Mtn'
p50
sI95
S'Eureka_Peak'
p51
sI96
S'Elmore_Ranch'
p52
sI97
S'Imperial'
p53
sI98
S'Superstition_Hills'
p54
sI99
S'San_Jacinto_South'
p55
sI103
S'Elsinore'
p56
sI104
S'Laguna_Salada'
p57
sI188
S'Morales'
p58
sI107
S'San_Jose'
p59
sI108
S'Hollywood'
p60
sI109
S'Palos_Verdes'
p61
sI622
S'Concord'
p62
sI623
S'Green_Valley'
p63
sI112
S'Verdugo'
p64
sI113
S'Sierra_Madre'
p65
sI626
S'Contra_Costa'
p66
sI115
S'Simi_Santa_Rosa'
p67
sI116
S'Oak_Ridge'
p68
sI117
S'Ventura_Pitas_Point'
p69
sI118
S'Red_Mountain'
p70
sI634
S'Franklin'
p71
sI703
S'Hilton_Creek'
p72
sI124
S'Clamshell_Sawpit'
p73
sI125
S'Cucamonga'
p74
sI639
S'Hayward'
p75
sI640
S'Hunting_Creek_Berryessa'
p76
sI129
S'Channel_Islands_Thrust'
p77
sI642
S'Las_Positas'
p78
sI131
S'Great_Valley_01'
p79
sI132
S'Great_Valley_03_Mysterious_Ridge'
p80
sI133
S'Great_Valley_02'
p81
sI134
S'Great_Valley_04a_Trout_Creek'
p82
sI647
S'Pilarcitos'
p83
sI136
S'Great_Valley_07_Orestimba'
p84
sI137
S'Great_Valley_08_Quinto'
p85
sI138
S'Great_Valley_10_Panoche'
p86
sI139
S'Great_Valley_11'
p87
sI140
S'Great_Valley_12'
p88
sI141
S'Great_Valley_14_Kettleman_Hills'
p89
sI142
S'Great_Valley_13_Coalinga'
p90
sI143
S'San_Joaquin_Hills'
p91
sI144
S'Little_Lake'
p92
sI145
S'Tank_Canyon'
p93
sI146
S'Elysian_Park_Upper'
p94
sI660
S'San_Gregorio'
p95
sI110
S'Santa_Rosa_Island'
p96
sI662
S'Sargent'
p97
sI151
S'Great_Valley_09_Laguna_Seca'
p98
sI152
S'Raymond'
p99
sI708
S'Surprise_Valley'
p100
sI666
S'Point_Reyes'
p101
sI667
S'Almanor'
p102
sI668
S'Bartlett_Springs'
p103
sI669
S'Battle_Creek'
p104
sI158
S'Bicycle_Lake'
p105
sI671
S'East_Huasna'
p106
sI672
S'Eaton_Roughs'
p107
sI161
S'Red_Pass'
p108
sI162
S'Paradise'
p109
sI163
S'Coyote_Lake'
p110
sI602
S'Calaveras'
p111
sI165
S'Cady'
p112
sI678
S'Incline_Village'
p113
sI167
S'Hector_Mine'
p114
sI168
S'Joshua_Tree_Seismicity'
p115
sI169
S'Blue_Cut'
p116
sI170
S'Brawley_Seismic_Zone'
p117
sI683
S'Los_Alamos'
p118
sI172
S'Cerro_Prieto'
p119
sI173
S'Canada_David_Detachment'
p120
sI686
S'Mohawk_Valley'
p121
sI687
S'North_Tahoe'
p122
sI176
S'Carlsbad'
p123
sI689
S'Rocky_Ledge'
p124
sI690
S'Russ'
p125
sI691
S'San_Luis_Range'
p126
sI692
S'San_Luis_Range_Oceano'
p127
sI693
S'San_Luis_Range_Pecho'
p128
sI694
S'Skinner_Flat'
p129
sI183
S'San_Pedro_Escarpment'
p130
sI184
S'Compton'
p131
sI185
S'Santa_Monica_Bay'
p132
sI698
S'Fish_Slough'
p133
sI699
S'Garberville_Briceland'
p134
sI700
S'Gillem_Big_Crack'
p135
sI701
S'Goose_Lake'
p136
sI702
S'Hartley_Springs'
p137
sI191
S'Big_Pine'
p138
sI192
S'Big_Pine_Central'
p139
sI705
S'Likely'
p140
sI194
S'San_Gorgonio_Pass'
p141
sI707
S'Mono_Lake'
p142
sI196
S'Elysian_Park_Lower'
p143
sI197
S'Anaheim'
p144
sI198
S'San_Vicente'
p145
sI711
S'Mount_Diablo_Thrust'
p146
sI201
S'Lost_Hills'
p147
sI202
S'Sisar'
p148
sI715
S'Zayante_Vergeles'
p149
sI204
S'Fontana_Seismicity'
p150
sI717
S'Great_Valley_05_Pittsburg_Kirby_Hills'
p151
sI206
S'Yorba_Linda'
p152
sI207
S'Lake_Isabella_Seismicity'
p153
sI208
S'Hosgri'
p154
sI721
S'Carson_Range_Genoa'
p155
sI722
S'Antelope_Valley'
p156
sI723
S'Homestead_Valley'
p157
sI724
S'Camp_Rock'
p158
sI214
S'Channel_Islands_Western_Deep_Ramp'
p159
sI215
S'Pitas_Point_Lower_Montalvo'
p160
sI219
S'Anacapa_Dume'
p161
sI221
S'Malibu_Coast'
p162
sI293
S'San_Jacinto_North'
p163
sI720
S'South_Klamath_Lake_West'
p164
sI226
S'Santa_Monica'
p165
sI123
S'Rose_Canyon'
p166
sI228
S'Holser'
p167
sI741
S'Big_Lagoon_Bald_Mtn'
p168
sI230
S'Del_Valle'
p169
sI209
S'Scodie_Lineament'
p170
sI232
S'Redondo_Canyon'
p171
sI636
S'Greenville'
p172
sI236
S'Whittier'
p173
sI210
S'Sierra_Nevada'
p174
sI238
S'Chino'
p175
sI893
S'Fitzhugh_Creek'
p176
sI240
S'Puente_Hills'
p177
sI211
S'Northridge_Hills'
p178
sI244
S'Panamint_Valley'
p179
sI245
S'Death_Valley'
p180
sI189
S'South_Cuyama'
p181
sI248
S'San_Gabriel'
p182
sI212
S'Pitas_Point_Lower'
p183
sI250
S'Mission_Creek'
p184
sI254
S'White_Wolf'
p185
sI255
S'Earthquake_Valley'
p186
sI774
S'San_Diego_Trough'
p187
sI641
S'La_Panza'
p188
sI776
S'Coronado_Bank'
p189
sI777
S'Oceanside'
p190
sI778
S'Santa_Susana'
p191
sI779
S'Mission_Hills'
p192
sI704
S'Honey_Lake'
p193
sI643
S'Los_Medanos_Roe_Island'
p194
sI644
S'Maacama'
p195
sI645
S'Great_Valley_06_Midland'
p196
sI646
S'Monte_Vista_Shannon'
p197
sI294
S'San_Andreas_North_Branch_Mill_Creek'
p198
sI44
S'White_Mountains'
p199
sI648
S'Quien_Sabe'
p200
sI709
S'Oceanic_West_Huasna'
p201
sI719
S'South_Klamath_Lake_East'
p202
sI649
S'Reliz'
p203
sI111
S'Santa_Cruz_Island'
p204
sI650
S'Rinconada'
p205
sI321
S'West_Tahoe'
p206
sI651
S'Rodgers_Creek_Healdsburg'
p207
sI93
S'Pinto_Mtn'
p208
sI130
S'Northridge'
p209
sI841
S'Ozena'
p210
sI842
S'Bear_River_fault_zone'
p211
sI844
S'Clayton'
p212
sI845
S'Ash_Hill'
p213
sI193
S'Pine_Mtn'
p214
sI341
S'Garlock'
p215
sI861
S'Airport_Lake'
p216
sI199
S'North_Salt_Lake'
p217
sI63
S'So_Sierra_Nevada'
p218
sI881
S'Baker'
p219
sI882
S'Bullion_Mountains'
p220
sI883
S'Cleghorn_Pass'
p221
sI884
S'Cleghorn_Lake'
p222
sI885
S'Sheephole'
p223
sI886
S'Towne_Pass'
p224
sI887
S'Tin_Mountain'
p225
sI888
S'Dry_Mountain'
p226
sI889
S'Dog_Valley'
p227
sI890
S'Last_Chance'
p228
sI891
S'Owens_Valley_Keough_Hot_Springs'
p229
sI892
S'Jess_Valley'
p230
sI381
S'Great_Valley_04b_Gordon_Valley'
p231
sI894
S'Davis_Creek'
p232
sI383
S'Great_Valley_03a_Dunnigan_Hills'
p233
sI901
S'San_Jacinto_Lytle_Creek'
p234
sI664
S'Silver_Creek'
p235
sI665
S'West_Napa'
p236
sI921
S'Ortigalita_North'
p237
sI155
S'McLean_Lake'
p238
sI781
S'Santa_Ynez_River'
p239
sI156
S'Nelson_Lake'
p240
sI122
S'Newport_Inglewood'
p241
sI696
S'Walker_Spring'
p242
sI157
S'Coyote_Canyon'
p243
sI287
S'San_Andreas'
p244
sI670
S'Casmalia'
p245
sI159
S'Garlic_Springs'
p246
sI160
S'Goldstone_Lake'
p247
sI697
S'Wight_Way'
p248
sI186
S'Peralta_Hills'
p249
sI164
S'Manix_Afton_Hills'
p250
sI677
S'Hunting_Creek_Bartlett_Springs'
p251
sI166
S'Ludlow'
p252
sI679
S'Keddie_Ridge'
p253
sI680
S'King_Range'
p254
sI545
S'Polaris'
p255
sI681
S'Lions_Head'
p256
s.